target datalayout = "e-m:e-p270:32:32-p271:32:32-p272:64:64-i64:64-i128:128-f80:128-n8:16:32:64-S128"
target triple = "x86_64-pc-linux-gnu"

; Function Attrs: inlinehint nounwind uwtable
define internal float @lerpf(float noundef %0, float noundef %1, float noundef %2) #10 {
  %4 = alloca float, align 4
  %5 = alloca float, align 4
  %6 = alloca float, align 4
  store float %0, ptr %4, align 4, !tbaa !67
  store float %1, ptr %5, align 4, !tbaa !67
  store float %2, ptr %6, align 4, !tbaa !67
  %7 = load float, ptr %4, align 4, !tbaa !67
  %8 = load float, ptr %5, align 4, !tbaa !67
  %9 = load float, ptr %4, align 4, !tbaa !67
  %10 = fsub nsz float %8, %9
  %11 = load float, ptr %6, align 4, !tbaa !67
  %12 = call nsz float @llvm.fmuladd.f32(float %10, float %11, float %7)
  ret float %12
}

; Function Attrs: nounwind uwtable
define internal void @pseudocolor_filter_16_11(i32 noundef %0, i32 noundef %1, i32 noundef %2, ptr noundef %3, ptr noundef %4, ptr noundef %5, i64 noundef %6, i64 noundef %7, i64 noundef %8, ptr noundef %9, float noundef %10) #1 {
  %12 = alloca i32, align 4
  %13 = alloca i32, align 4
  %14 = alloca i32, align 4
  %15 = alloca ptr, align 8
  %16 = alloca ptr, align 8
  %17 = alloca ptr, align 8
  %18 = alloca i64, align 8
  %19 = alloca i64, align 8
  %20 = alloca i64, align 8
  %21 = alloca ptr, align 8
  %22 = alloca float, align 4
  %23 = alloca ptr, align 8
  %24 = alloca ptr, align 8
  %25 = alloca ptr, align 8
  %26 = alloca i32, align 4
  %27 = alloca i32, align 4
  %28 = alloca i32, align 4
  store i32 %0, ptr %12, align 4, !tbaa !24
  store i32 %1, ptr %13, align 4, !tbaa !24
  store i32 %2, ptr %14, align 4, !tbaa !24
  store ptr %3, ptr %15, align 8, !tbaa !29
  store ptr %4, ptr %16, align 8, !tbaa !29
  store ptr %5, ptr %17, align 8, !tbaa !29
  store i64 %6, ptr %18, align 8, !tbaa !91
  store i64 %7, ptr %19, align 8, !tbaa !91
  store i64 %8, ptr %20, align 8, !tbaa !91
  store ptr %9, ptr %21, align 8, !tbaa !96
  store float %10, ptr %22, align 4, !tbaa !67
  call void @llvm.lifetime.start.p0(i64 8, ptr %23) #11
  %29 = load ptr, ptr %15, align 8, !tbaa !29
  store ptr %29, ptr %23, align 8, !tbaa !108
  call void @llvm.lifetime.start.p0(i64 8, ptr %24) #11
  %30 = load ptr, ptr %16, align 8, !tbaa !29
  store ptr %30, ptr %24, align 8, !tbaa !108
  call void @llvm.lifetime.start.p0(i64 8, ptr %25) #11
  %31 = load ptr, ptr %17, align 8, !tbaa !29
  store ptr %31, ptr %25, align 8, !tbaa !108
  call void @llvm.lifetime.start.p0(i64 4, ptr %26) #11
  call void @llvm.lifetime.start.p0(i64 4, ptr %27) #11
  %32 = load i64, ptr %18, align 8, !tbaa !91
  %33 = sdiv i64 %32, 2
  store i64 %33, ptr %18, align 8, !tbaa !91
  %34 = load i64, ptr %20, align 8, !tbaa !91
  %35 = sdiv i64 %34, 2
  store i64 %35, ptr %20, align 8, !tbaa !91
  %36 = load i64, ptr %19, align 8, !tbaa !91
  %37 = sdiv i64 %36, 2
  store i64 %37, ptr %19, align 8, !tbaa !91
  store i32 0, ptr %27, align 4, !tbaa !24
  br label %38

38:                                               ; preds = %108, %11
  %39 = load i32, ptr %27, align 4, !tbaa !24
  %40 = load i32, ptr %14, align 4, !tbaa !24
  %41 = icmp slt i32 %39, %40
  br i1 %41, label %42, label %111

42:                                               ; preds = %38
  store i32 0, ptr %26, align 4, !tbaa !24
  br label %43

43:                                               ; preds = %98, %42
  %44 = load i32, ptr %26, align 4, !tbaa !24
  %45 = load i32, ptr %13, align 4, !tbaa !24
  %46 = icmp slt i32 %44, %45
  br i1 %46, label %47, label %101

47:                                               ; preds = %43
  call void @llvm.lifetime.start.p0(i64 4, ptr %28) #11
  %48 = load ptr, ptr %21, align 8, !tbaa !96
  %49 = load ptr, ptr %23, align 8, !tbaa !108
  %50 = load i32, ptr %27, align 4, !tbaa !24
  %51 = shl i32 %50, 1
  %52 = sext i32 %51 to i64
  %53 = load i64, ptr %18, align 8, !tbaa !91
  %54 = mul nsw i64 %52, %53
  %55 = load i32, ptr %26, align 4, !tbaa !24
  %56 = shl i32 %55, 1
  %57 = sext i32 %56 to i64
  %58 = add nsw i64 %54, %57
  %59 = getelementptr inbounds i16, ptr %49, i64 %58
  %60 = load i16, ptr %59, align 2, !tbaa !110
  %61 = zext i16 %60 to i64
  %62 = getelementptr inbounds nuw float, ptr %48, i64 %61
  %63 = load float, ptr %62, align 4, !tbaa !67
  %64 = fptosi float %63 to i32
  store i32 %64, ptr %28, align 4, !tbaa !24
  %65 = load i32, ptr %28, align 4, !tbaa !24
  %66 = icmp sge i32 %65, 0
  br i1 %66, label %67, label %87

67:                                               ; preds = %47
  %68 = load i32, ptr %28, align 4, !tbaa !24
  %69 = load i32, ptr %12, align 4, !tbaa !24
  %70 = icmp sle i32 %68, %69
  br i1 %70, label %71, label %87

71:                                               ; preds = %67
  %72 = load ptr, ptr %24, align 8, !tbaa !108
  %73 = load i32, ptr %26, align 4, !tbaa !24
  %74 = sext i32 %73 to i64
  %75 = getelementptr inbounds i16, ptr %72, i64 %74
  %76 = load i16, ptr %75, align 2, !tbaa !110
  %77 = uitofp i16 %76 to float
  %78 = load i32, ptr %28, align 4, !tbaa !24
  %79 = sitofp i32 %78 to float
  %80 = load float, ptr %22, align 4, !tbaa !67
  %81 = call nsz float @lerpf(float noundef %77, float noundef %79, float noundef %80)
  %82 = fptoui float %81 to i16
  %83 = load ptr, ptr %25, align 8, !tbaa !108
  %84 = load i32, ptr %26, align 4, !tbaa !24
  %85 = sext i32 %84 to i64
  %86 = getelementptr inbounds i16, ptr %83, i64 %85
  store i16 %82, ptr %86, align 2, !tbaa !110
  br label %97

87:                                               ; preds = %67, %47
  %88 = load ptr, ptr %24, align 8, !tbaa !108
  %89 = load i32, ptr %26, align 4, !tbaa !24
  %90 = sext i32 %89 to i64
  %91 = getelementptr inbounds i16, ptr %88, i64 %90
  %92 = load i16, ptr %91, align 2, !tbaa !110
  %93 = load ptr, ptr %25, align 8, !tbaa !108
  %94 = load i32, ptr %26, align 4, !tbaa !24
  %95 = sext i32 %94 to i64
  %96 = getelementptr inbounds i16, ptr %93, i64 %95
  store i16 %92, ptr %96, align 2, !tbaa !110
  br label %97

97:                                               ; preds = %87, %71
  call void @llvm.lifetime.end.p0(i64 4, ptr %28) #11
  br label %98

98:                                               ; preds = %97
  %99 = load i32, ptr %26, align 4, !tbaa !24
  %100 = add nsw i32 %99, 1
  store i32 %100, ptr %26, align 4, !tbaa !24
  br label %43, !llvm.loop !118

101:                                              ; preds = %43
  %102 = load i64, ptr %19, align 8, !tbaa !91
  %103 = load ptr, ptr %24, align 8, !tbaa !108
  %104 = getelementptr inbounds i16, ptr %103, i64 %102
  store ptr %104, ptr %24, align 8, !tbaa !108
  %105 = load i64, ptr %20, align 8, !tbaa !91
  %106 = load ptr, ptr %25, align 8, !tbaa !108
  %107 = getelementptr inbounds i16, ptr %106, i64 %105
  store ptr %107, ptr %25, align 8, !tbaa !108
  br label %108

108:                                              ; preds = %101
  %109 = load i32, ptr %27, align 4, !tbaa !24
  %110 = add nsw i32 %109, 1
  store i32 %110, ptr %27, align 4, !tbaa !24
  br label %38, !llvm.loop !119

111:                                              ; preds = %38
  call void @llvm.lifetime.end.p0(i64 4, ptr %27) #11
  call void @llvm.lifetime.end.p0(i64 4, ptr %26) #11
  call void @llvm.lifetime.end.p0(i64 8, ptr %25) #11
  call void @llvm.lifetime.end.p0(i64 8, ptr %24) #11
  call void @llvm.lifetime.end.p0(i64 8, ptr %23) #11
  ret void
}