; Function Attrs: nofree norecurse nosync nounwind memory(argmem: readwrite) uwtable
define internal void @pseudocolor_filter_16_11(i32 noundef %0, i32 noundef %1, i32 noundef %2, ptr noundef readonly captures(none) %3, ptr noundef readonly captures(none) %4, ptr noundef writeonly captures(none) %5, i64 noundef %6, i64 noundef %7, i64 noundef %8, ptr noundef readonly captures(none) %9, float noundef %10) #8 {
  %12 = sdiv i64 %6, 2
  %13 = sdiv i64 %8, 2
  %14 = sdiv i64 %7, 2
  %15 = icmp sgt i32 %2, 0
  %16 = icmp sgt i32 %1, 0
  %or.cond = and i1 %15, %16
  br i1 %or.cond, label %.preheader.us.preheader, label %._crit_edge41

.preheader.us.preheader:                          ; preds = %11
  %wide.trip.count47 = zext nneg i32 %2 to i64
  %wide.trip.count = zext nneg i32 %1 to i64
  br label %.preheader.us

.preheader.us:                                    ; preds = %.preheader.us.preheader, %._crit_edge.us
  %indvars.iv44 = phi i64 [ 0, %.preheader.us.preheader ], [ %indvars.iv.next45, %._crit_edge.us ]
  %.03439.us = phi ptr [ %5, %.preheader.us.preheader ], [ %42, %._crit_edge.us ]
  %.03538.us = phi ptr [ %4, %.preheader.us.preheader ], [ %41, %._crit_edge.us ]
  %indvars.iv44.tr = trunc i64 %indvars.iv44 to i32
  %17 = shl i32 %indvars.iv44.tr, 1
  %18 = sext i32 %17 to i64
  %19 = mul nsw i64 %12, %18
  %20 = getelementptr i16, ptr %3, i64 %19
  br label %21

21:                                               ; preds = %.preheader.us, %39
  %indvars.iv = phi i64 [ 0, %.preheader.us ], [ %indvars.iv.next, %39 ]
  %indvars.iv.tr = trunc i64 %indvars.iv to i32
  %22 = shl i32 %indvars.iv.tr, 1
  %23 = sext i32 %22 to i64
  %24 = getelementptr i16, ptr %20, i64 %23
  %25 = load i16, ptr %24, align 2, !tbaa !93
  %26 = zext i16 %25 to i64
  %27 = getelementptr inbounds nuw float, ptr %9, i64 %26
  %28 = load float, ptr %27, align 4, !tbaa !62
  %29 = fptosi float %28 to i32
  %30 = icmp slt i32 %29, 0
  %.not.us = icmp slt i32 %0, %29
  %or.cond.us = or i1 %30, %.not.us
  %31 = getelementptr inbounds nuw i16, ptr %.03538.us, i64 %indvars.iv
  %32 = load i16, ptr %31, align 2, !tbaa !93
  br i1 %or.cond.us, label %39, label %33

33:                                               ; preds = %21
  %34 = uitofp i16 %32 to float
  %35 = uitofp nneg i32 %29 to float
  %36 = fsub nsz float %35, %34
  %37 = tail call nsz noundef float @llvm.fmuladd.f32(float %36, float %10, float %34)
  %38 = fptoui float %37 to i16
  br label %39

39:                                               ; preds = %21, %33
  %.sink = phi i16 [ %38, %33 ], [ %32, %21 ]
  %40 = getelementptr inbounds nuw i16, ptr %.03439.us, i64 %indvars.iv
  store i16 %.sink, ptr %40, align 2, !tbaa !93
  %indvars.iv.next = add nuw nsw i64 %indvars.iv, 1
  %exitcond.not = icmp eq i64 %indvars.iv.next, %wide.trip.count
  br i1 %exitcond.not, label %._crit_edge.us, label %21, !llvm.loop !101

._crit_edge.us:                                   ; preds = %39
  %41 = getelementptr inbounds i16, ptr %.03538.us, i64 %14
  %42 = getelementptr inbounds i16, ptr %.03439.us, i64 %13
  %indvars.iv.next45 = add nuw nsw i64 %indvars.iv44, 1
  %exitcond48.not = icmp eq i64 %indvars.iv.next45, %wide.trip.count47
  br i1 %exitcond48.not, label %._crit_edge41, label %.preheader.us, !llvm.loop !102

._crit_edge41:                                    ; preds = %._crit_edge.us, %11
  ret void
}